; Function Attrs: nofree norecurse nosync nounwind memory(argmem: readwrite) uwtable
define hidden void @cfl_subsample_hbd_422_32x32_c(ptr nocapture noundef readonly %0, i32 noundef %1, ptr nocapture noundef writeonly %2) #5 {
  %4 = sext i32 %1 to i64
  br label %.preheader.us.i

.preheader.us.i:                                  ; preds = %._crit_edge.us.i, %3
  %.01420.us.i = phi i32 [ %18, %._crit_edge.us.i ], [ 0, %3 ]
  %.01519.us.i = phi ptr [ %16, %._crit_edge.us.i ], [ %0, %3 ]
  %.01618.us.i = phi ptr [ %17, %._crit_edge.us.i ], [ %2, %3 ]
  br label %5

5:                                                ; preds = %5, %.preheader.us.i
  %indvars.iv.i = phi i64 [ 0, %.preheader.us.i ], [ %indvars.iv.next.i, %5 ]
  %6 = getelementptr inbounds i16, ptr %.01519.us.i, i64 %indvars.iv.i
  %7 = load i16, ptr %6, align 2
  %8 = or disjoint i64 %indvars.iv.i, 1
  %9 = getelementptr inbounds i16, ptr %.01519.us.i, i64 %8
  %10 = load i16, ptr %9, align 2
  %11 = add i16 %10, %7
  %12 = shl i16 %11, 2
  %13 = lshr exact i64 %indvars.iv.i, 1
  %14 = getelementptr inbounds i16, ptr %.01618.us.i, i64 %13
  store i16 %12, ptr %14, align 2
  %indvars.iv.next.i = add nuw nsw i64 %indvars.iv.i, 2
  %15 = icmp ult i64 %indvars.iv.i, 30
  br i1 %15, label %5, label %._crit_edge.us.i, !llvm.loop !28

._crit_edge.us.i:                                 ; preds = %5
  %16 = getelementptr inbounds i16, ptr %.01519.us.i, i64 %4
  %17 = getelementptr inbounds i8, ptr %.01618.us.i, i64 64
  %18 = add nuw nsw i32 %.01420.us.i, 1
  %exitcond.not.i = icmp eq i32 %18, 32
  br i1 %exitcond.not.i, label %cfl_luma_subsampling_422_hbd_c.exit, label %.preheader.us.i, !llvm.loop !27

cfl_luma_subsampling_422_hbd_c.exit:              ; preds = %._crit_edge.us.i
  ret void
}